target datalayout = "e-m:e-p270:32:32-p271:32:32-p272:64:64-i64:64-i128:128-f80:128-n8:16:32:64-S128"
target triple = "x86_64-pc-linux-gnu"

%struct.ident_t = type { i32, i32, i32, i32, ptr }
%struct.Qureg = type { i32, i32, i32, i64, i64, i32, i32, %struct.ComplexArray, %struct.ComplexArray, %struct.ComplexArray, ptr, ptr, ptr, ptr, ptr, ptr }
%struct.ComplexArray = type { ptr, ptr }
%struct.Complex = type { double, double }

@3 = private unnamed_addr constant %struct.ident_t { i32 0, i32 2, i32 0, i32 22, ptr @0 }, align 8

; Function Attrs: nounwind uwtable
define void @statevec_phaseShiftByTerm(ptr noundef byval(%struct.Qureg) align 8 %0, i32 noundef %1, double %2, double %3) #0 {
  %5 = alloca %struct.Complex, align 8
  %6 = alloca i32, align 4
  %7 = alloca i64, align 8
  %8 = alloca i64, align 8
  %9 = alloca i64, align 8
  %10 = alloca ptr, align 8
  %11 = alloca ptr, align 8
  %12 = alloca double, align 8
  %13 = alloca double, align 8
  %14 = getelementptr inbounds nuw { double, double }, ptr %5, i32 0, i32 0
  store double %2, ptr %14, align 8
  %15 = getelementptr inbounds nuw { double, double }, ptr %5, i32 0, i32 1
  store double %3, ptr %15, align 8
  store i32 %1, ptr %6, align 4, !tbaa !8
  call void @llvm.lifetime.start.p0(i64 8, ptr %7) #3
  call void @llvm.lifetime.start.p0(i64 8, ptr %8) #3
  %16 = getelementptr inbounds nuw %struct.Qureg, ptr %0, i32 0, i32 3
  %17 = load i64, ptr %16, align 8, !tbaa !12
  store i64 %17, ptr %8, align 8, !tbaa !4
  call void @llvm.lifetime.start.p0(i64 8, ptr %9) #3
  %18 = getelementptr inbounds nuw %struct.Qureg, ptr %0, i32 0, i32 5
  %19 = load i32, ptr %18, align 8, !tbaa !26
  %20 = sext i32 %19 to i64
  store i64 %20, ptr %9, align 8, !tbaa !4
  %21 = getelementptr inbounds nuw %struct.Qureg, ptr %0, i32 0, i32 3
  %22 = load i64, ptr %21, align 8, !tbaa !12
  store i64 %22, ptr %7, align 8, !tbaa !4
  call void @llvm.lifetime.start.p0(i64 8, ptr %10) #3
  %23 = getelementptr inbounds nuw %struct.Qureg, ptr %0, i32 0, i32 7
  %24 = getelementptr inbounds nuw %struct.ComplexArray, ptr %23, i32 0, i32 0
  %25 = load ptr, ptr %24, align 8, !tbaa !27
  store ptr %25, ptr %10, align 8, !tbaa !25
  call void @llvm.lifetime.start.p0(i64 8, ptr %11) #3
  %26 = getelementptr inbounds nuw %struct.Qureg, ptr %0, i32 0, i32 7
  %27 = getelementptr inbounds nuw %struct.ComplexArray, ptr %26, i32 0, i32 1
  %28 = load ptr, ptr %27, align 8, !tbaa !28
  store ptr %28, ptr %11, align 8, !tbaa !25
  call void @llvm.lifetime.start.p0(i64 8, ptr %12) #3
  %29 = getelementptr inbounds nuw %struct.Complex, ptr %5, i32 0, i32 0
  %30 = load double, ptr %29, align 8, !tbaa !37
  store double %30, ptr %12, align 8, !tbaa !10
  call void @llvm.lifetime.start.p0(i64 8, ptr %13) #3
  %31 = getelementptr inbounds nuw %struct.Complex, ptr %5, i32 0, i32 1
  %32 = load double, ptr %31, align 8, !tbaa !39
  store double %32, ptr %13, align 8, !tbaa !10
  call void (ptr, i32, ptr, ...) @__kmpc_fork_call(ptr @3, i32 8, ptr @statevec_phaseShiftByTerm.omp_outlined, ptr %7, ptr %6, ptr %9, ptr %8, ptr %10, ptr %11, ptr %12, ptr %13)
  call void @llvm.lifetime.end.p0(i64 8, ptr %13) #3
  call void @llvm.lifetime.end.p0(i64 8, ptr %12) #3
  call void @llvm.lifetime.end.p0(i64 8, ptr %11) #3
  call void @llvm.lifetime.end.p0(i64 8, ptr %10) #3
  call void @llvm.lifetime.end.p0(i64 8, ptr %9) #3
  call void @llvm.lifetime.end.p0(i64 8, ptr %8) #3
  call void @llvm.lifetime.end.p0(i64 8, ptr %7) #3
  ret void
}