; Function Attrs: nounwind uwtable
define void @statevec_phaseShiftByTerm(ptr noundef readonly byval(%struct.Qureg) align 8 captures(none) %0, i32 noundef %1, double %2, double %3) local_unnamed_addr #1 {
  %5 = alloca i32, align 4
  %6 = alloca i64, align 8
  %7 = alloca i64, align 8
  %8 = alloca i64, align 8
  %9 = alloca ptr, align 8
  %10 = alloca ptr, align 8
  %11 = alloca double, align 8
  %12 = alloca double, align 8
  store i32 %1, ptr %5, align 4, !tbaa !18
  call void @llvm.lifetime.start.p0(i64 8, ptr nonnull %6) #4
  call void @llvm.lifetime.start.p0(i64 8, ptr nonnull %7) #4
  %13 = getelementptr inbounds nuw i8, ptr %0, i64 16
  %14 = load i64, ptr %13, align 8, !tbaa !8
  store i64 %14, ptr %7, align 8, !tbaa !16
  call void @llvm.lifetime.start.p0(i64 8, ptr nonnull %8) #4
  %15 = getelementptr inbounds nuw i8, ptr %0, i64 32
  %16 = load i32, ptr %15, align 8, !tbaa !19
  %17 = sext i32 %16 to i64
  store i64 %17, ptr %8, align 8, !tbaa !16
  store i64 %14, ptr %6, align 8, !tbaa !16
  call void @llvm.lifetime.start.p0(i64 8, ptr nonnull %9) #4
  %18 = getelementptr inbounds nuw i8, ptr %0, i64 40
  %19 = load ptr, ptr %18, align 8, !tbaa !22
  store ptr %19, ptr %9, align 8, !tbaa !26
  call void @llvm.lifetime.start.p0(i64 8, ptr nonnull %10) #4
  %20 = getelementptr inbounds nuw i8, ptr %0, i64 48
  %21 = load ptr, ptr %20, align 8, !tbaa !24
  store ptr %21, ptr %10, align 8, !tbaa !26
  call void @llvm.lifetime.start.p0(i64 8, ptr nonnull %11) #4
  store double %2, ptr %11, align 8, !tbaa !4
  call void @llvm.lifetime.start.p0(i64 8, ptr nonnull %12) #4
  store double %3, ptr %12, align 8, !tbaa !4
  call void (ptr, i32, ptr, ...) @__kmpc_fork_call(ptr nonnull @3, i32 8, ptr nonnull @statevec_phaseShiftByTerm.omp_outlined, ptr nonnull %6, ptr nonnull %5, ptr nonnull %8, ptr nonnull %7, ptr nonnull %9, ptr nonnull %10, ptr nonnull %11, ptr nonnull %12)
  call void @llvm.lifetime.end.p0(i64 8, ptr nonnull %12) #4
  call void @llvm.lifetime.end.p0(i64 8, ptr nonnull %11) #4
  call void @llvm.lifetime.end.p0(i64 8, ptr nonnull %10) #4
  call void @llvm.lifetime.end.p0(i64 8, ptr nonnull %9) #4
  call void @llvm.lifetime.end.p0(i64 8, ptr nonnull %8) #4
  call void @llvm.lifetime.end.p0(i64 8, ptr nonnull %7) #4
  call void @llvm.lifetime.end.p0(i64 8, ptr nonnull %6) #4
  ret void
}